; Function Attrs: mustprogress nofree norecurse nosync nounwind memory(readwrite, inaccessiblemem: none) uwtable
define internal void @_ZN12_GLOBAL__N_121BytecodeFormConverterILN6hermes3hbc12BytecodeFormE0EE22processFunctionHeadersEv(ptr nocapture noundef nonnull readonly align 8 dereferenceable(288) %this) #12 align 2 {
entry:
  %functionHeaders = getelementptr inbounds i8, ptr %this, i64 24
  %0 = load ptr, ptr %functionHeaders, align 8
  %Length.i.i = getelementptr inbounds i8, ptr %this, i64 32
  %1 = load i64, ptr %Length.i.i, align 8
  %add.ptr.i = getelementptr inbounds %"struct.hermes::hbc::SmallFuncHeader", ptr %0, i64 %1
  %cmp.not5 = icmp eq i64 %1, 0
  br i1 %cmp.not5, label %for.end, label %for.body

for.body:                                         ; preds = %entry, %for.body
  %__begin2.07 = phi ptr [ %incdec.ptr, %for.body ], [ %0, %entry ]
  %offsetAdj.sroa.0.06 = phi i32 [ %add.i, %for.body ], [ 0, %entry ]
  %bf.load = load i120, ptr %__begin2.07, align 1
  %2 = trunc i120 %bf.load to i32
  %add.i = add i32 %offsetAdj.sroa.0.06, %2
  %3 = and i32 %add.i, 33554431
  %bf.value = zext nneg i32 %3 to i120
  %bf.clear5 = and i120 %bf.load, -33554432
  %bf.set = or disjoint i120 %bf.clear5, %bf.value
  store i120 %bf.set, ptr %__begin2.07, align 1
  %incdec.ptr = getelementptr inbounds i8, ptr %__begin2.07, i64 16
  %cmp.not = icmp eq ptr %incdec.ptr, %add.ptr.i
  br i1 %cmp.not, label %for.end, label %for.body

for.end:                                          ; preds = %for.body, %entry
  ret void
}